target datalayout = "e-m:e-p270:32:32-p271:32:32-p272:64:64-i64:64-i128:128-f80:128-n8:16:32:64-S128"
target triple = "x86_64-pc-linux-gnu"

%struct.grpc_iomgr_object = type { ptr, ptr, ptr }
%"struct.std::atomic.10" = type { %"struct.std::__atomic_base.11" }
%"struct.std::__atomic_base.11" = type { ptr }
%"class.absl::lts_20240722::log_internal::Voidify" = type { i8 }
%"class.absl::lts_20240722::log_internal::LogMessage" = type { %"class.absl::lts_20240722::base_internal::ErrnoSaver", %"class.std::unique_ptr" }
%"class.absl::lts_20240722::base_internal::ErrnoSaver" = type { i32 }
%"class.std::unique_ptr" = type { %"struct.std::__uniq_ptr_data" }
%"struct.std::__uniq_ptr_data" = type { %"class.std::__uniq_ptr_impl" }
%"class.std::__uniq_ptr_impl" = type { %"class.std::tuple" }
%"class.std::tuple" = type { %"struct.std::_Tuple_impl" }
%"struct.std::_Tuple_impl" = type { %"struct.std::_Head_base.13" }
%"struct.std::_Head_base.13" = type { ptr }
%"class.absl::lts_20240722::log_internal::VLogSite" = type { ptr, %"struct.std::atomic", %"struct.std::atomic.10" }
%"struct.std::atomic" = type { %"struct.std::__atomic_base" }
%"struct.std::__atomic_base" = type { i32 }
%"class.std::basic_string_view" = type { i64, ptr }
%class.anon.30 = type { i8 }

@_ZL13g_root_object = internal global %struct.grpc_iomgr_object zeroinitializer, align 8
@.str.1 = private unnamed_addr constant [115 x i8] c"generated/home/dtcxzyw/WorkSpace/Projects/compilers/llvm-opt-benchmark/bench/grpc/grpc/src/core/lib/iomgr/iomgr.cc\00", align 1
@.str.8 = private unnamed_addr constant [10 x i8] c" OBJECT: \00", align 1
@.str.9 = private unnamed_addr constant [2 x i8] c" \00", align 1
@"_ZZZL12dump_objectsPKcENK3$_0clEvE4site" = internal global { ptr, { i32 }, %"struct.std::atomic.10" } { ptr @.str.1, { i32 } { i32 2147483647 }, %"struct.std::atomic.10" zeroinitializer }, align 8

; Function Attrs: mustprogress nounwind uwtable
define linkonce_odr noundef i64 @_ZNSt11char_traitsIcE6lengthEPKc(ptr noundef %0) #6 comdat align 2 {
  %2 = alloca ptr, align 8
  store ptr %0, ptr %2, align 8, !tbaa !51
  %3 = load ptr, ptr %2, align 8, !tbaa !51
  %4 = call i64 @strlen(ptr noundef %3) #3
  ret i64 %4
}

; Function Attrs: mustprogress nounwind uwtable
define linkonce_odr noundef i32 @_ZStanSt12memory_orderSt23__memory_order_modifier(i32 noundef %0, i32 noundef %1) #6 comdat {
  %3 = alloca i32, align 4
  %4 = alloca i32, align 4
  store i32 %0, ptr %3, align 4, !tbaa !90
  store i32 %1, ptr %4, align 4, !tbaa !95
  %5 = load i32, ptr %3, align 4, !tbaa !90
  %6 = load i32, ptr %4, align 4, !tbaa !95
  %7 = and i32 %5, %6
  ret i32 %7
}

; Function Attrs: mustprogress nounwind uwtable
define linkonce_odr void @_ZNSt17basic_string_viewIcSt11char_traitsIcEEC2EPKc(ptr noundef nonnull align 8 dereferenceable(16) %0, ptr noundef nonnull %1) unnamed_addr #6 comdat align 2 {
  %3 = alloca ptr, align 8
  %4 = alloca ptr, align 8
  store ptr %0, ptr %3, align 8, !tbaa !162
  store ptr %1, ptr %4, align 8, !tbaa !51
  %5 = load ptr, ptr %3, align 8
  %6 = getelementptr inbounds nuw %"class.std::basic_string_view", ptr %5, i32 0, i32 0
  %7 = load ptr, ptr %4, align 8, !tbaa !51
  %8 = call noundef i64 @_ZNSt11char_traitsIcE6lengthEPKc(ptr noundef %7)
  store i64 %8, ptr %6, align 8, !tbaa !164
  %9 = getelementptr inbounds nuw %"class.std::basic_string_view", ptr %5, i32 0, i32 1
  %10 = load ptr, ptr %4, align 8, !tbaa !51
  store ptr %10, ptr %9, align 8, !tbaa !166
  ret void
}

; Function Attrs: alwaysinline mustprogress nounwind uwtable
define linkonce_odr noundef i32 @_ZNKSt13__atomic_baseIiE4loadESt12memory_order(ptr noundef nonnull align 4 dereferenceable(4) %0, i32 noundef %1) #15 comdat align 2 {
  %3 = alloca ptr, align 8
  %4 = alloca i32, align 4
  %5 = alloca i32, align 4
  %6 = alloca i32, align 4
  store ptr %0, ptr %3, align 8, !tbaa !104
  store i32 %1, ptr %4, align 4, !tbaa !90
  %7 = load ptr, ptr %3, align 8
  call void @llvm.lifetime.start.p0(i64 4, ptr %5) #3
  %8 = load i32, ptr %4, align 4, !tbaa !90
  %9 = call noundef i32 @_ZStanSt12memory_orderSt23__memory_order_modifier(i32 noundef %8, i32 noundef 65535)
  store i32 %9, ptr %5, align 4, !tbaa !90
  br label %10

10:                                               ; preds = %2
  br label %11

11:                                               ; preds = %10
  br label %12

12:                                               ; preds = %11
  br label %13

13:                                               ; preds = %12
  br label %14

14:                                               ; preds = %13
  br label %15

15:                                               ; preds = %14
  %16 = getelementptr inbounds nuw %"struct.std::__atomic_base", ptr %7, i32 0, i32 0
  %17 = load i32, ptr %4, align 4, !tbaa !90
  switch i32 %17, label %18 [
    i32 1, label %20
    i32 2, label %20
    i32 5, label %22
  ]

18:                                               ; preds = %15
  %19 = load atomic i32, ptr %16 monotonic, align 4
  store i32 %19, ptr %6, align 4
  br label %24

20:                                               ; preds = %15, %15
  %21 = load atomic i32, ptr %16 acquire, align 4
  store i32 %21, ptr %6, align 4
  br label %24

22:                                               ; preds = %15
  %23 = load atomic i32, ptr %16 seq_cst, align 4
  store i32 %23, ptr %6, align 4
  br label %24

24:                                               ; preds = %22, %20, %18
  %25 = load i32, ptr %6, align 4, !tbaa !3
  call void @llvm.lifetime.end.p0(i64 4, ptr %5) #3
  ret i32 %25
}

; Function Attrs: mustprogress nounwind uwtable
define linkonce_odr void @_ZNKO4absl12lts_2024072212log_internal7VoidifyaaINS1_10LogMessageEEEvRKT_(ptr noundef nonnull align 1 dereferenceable(1) %0, ptr noundef nonnull align 8 dereferenceable(16) %1) #6 comdat align 2 {
  %3 = alloca ptr, align 8
  %4 = alloca ptr, align 8
  store ptr %0, ptr %3, align 8, !tbaa !47
  store ptr %1, ptr %4, align 8, !tbaa !49
  ret void
}

; Function Attrs: mustprogress uwtable
define linkonce_odr noundef nonnull align 8 dereferenceable(16) ptr @_ZN4absl12lts_2024072212log_internal10LogMessagelsILi2EEERS2_RAT__Kc(ptr noundef nonnull align 8 dereferenceable(16) %0, ptr noundef nonnull align 1 dereferenceable(2) %1) #4 comdat align 2 {
  %3 = alloca ptr, align 8
  %4 = alloca ptr, align 8
  %5 = alloca %"class.std::basic_string_view", align 8
  store ptr %0, ptr %3, align 8, !tbaa !49
  store ptr %1, ptr %4, align 8, !tbaa !51
  %6 = load ptr, ptr %3, align 8
  %7 = load ptr, ptr %4, align 8, !tbaa !51
  %8 = getelementptr inbounds [2 x i8], ptr %7, i64 0, i64 0
  call void @_ZNSt17basic_string_viewIcSt11char_traitsIcEEC2EPKc(ptr noundef nonnull align 8 dereferenceable(16) %5, ptr noundef %8) #3
  %9 = getelementptr inbounds nuw { i64, ptr }, ptr %5, i32 0, i32 0
  %10 = load i64, ptr %9, align 8
  %11 = getelementptr inbounds nuw { i64, ptr }, ptr %5, i32 0, i32 1
  %12 = load ptr, ptr %11, align 8
  call void @_ZN4absl12lts_2024072212log_internal10LogMessage19CopyToEncodedBufferILNS2_10StringTypeE0EEEvSt17basic_string_viewIcSt11char_traitsIcEE(ptr noundef nonnull align 8 dereferenceable(16) %6, i64 %10, ptr %12)
  ret ptr %6
}

; Function Attrs: mustprogress uwtable
define linkonce_odr noundef nonnull align 8 dereferenceable(16) ptr @_ZN4absl12lts_2024072212log_internal10LogMessagelsILi10EEERS2_RAT__Kc(ptr noundef nonnull align 8 dereferenceable(16) %0, ptr noundef nonnull align 1 dereferenceable(10) %1) #4 comdat align 2 {
  %3 = alloca ptr, align 8
  %4 = alloca ptr, align 8
  %5 = alloca %"class.std::basic_string_view", align 8
  store ptr %0, ptr %3, align 8, !tbaa !49
  store ptr %1, ptr %4, align 8, !tbaa !51
  %6 = load ptr, ptr %3, align 8
  %7 = load ptr, ptr %4, align 8, !tbaa !51
  %8 = getelementptr inbounds [10 x i8], ptr %7, i64 0, i64 0
  call void @_ZNSt17basic_string_viewIcSt11char_traitsIcEEC2EPKc(ptr noundef nonnull align 8 dereferenceable(16) %5, ptr noundef %8) #3
  %9 = getelementptr inbounds nuw { i64, ptr }, ptr %5, i32 0, i32 0
  %10 = load i64, ptr %9, align 8
  %11 = getelementptr inbounds nuw { i64, ptr }, ptr %5, i32 0, i32 1
  %12 = load ptr, ptr %11, align 8
  call void @_ZN4absl12lts_2024072212log_internal10LogMessage19CopyToEncodedBufferILNS2_10StringTypeE0EEEvSt17basic_string_viewIcSt11char_traitsIcEE(ptr noundef nonnull align 8 dereferenceable(16) %6, i64 %10, ptr %12)
  ret ptr %6
}

; Function Attrs: mustprogress nounwind uwtable
define linkonce_odr noundef nonnull align 8 dereferenceable(16) ptr @_ZN4absl12lts_2024072212log_internal10LogMessage14InternalStreamEv(ptr noundef nonnull align 8 dereferenceable(16) %0) #6 comdat align 2 {
  %2 = alloca ptr, align 8
  store ptr %0, ptr %2, align 8, !tbaa !49
  %3 = load ptr, ptr %2, align 8
  ret ptr %3
}

; Function Attrs: alwaysinline mustprogress uwtable
define linkonce_odr noundef zeroext i1 @_ZN4absl12lts_2024072212log_internal8VLogSite9IsEnabledEi(ptr noundef nonnull align 8 dereferenceable(24) %0, i32 noundef %1) #9 comdat align 2 {
  %3 = alloca i1, align 1
  %4 = alloca ptr, align 8
  %5 = alloca i32, align 4
  %6 = alloca i32, align 4
  %7 = alloca i32, align 4
  store ptr %0, ptr %4, align 8, !tbaa !45
  store i32 %1, ptr %5, align 4, !tbaa !3
  %8 = load ptr, ptr %4, align 8
  call void @llvm.lifetime.start.p0(i64 4, ptr %6) #3
  %9 = getelementptr inbounds nuw %"class.absl::lts_20240722::log_internal::VLogSite", ptr %8, i32 0, i32 1
  %10 = call noundef i32 @_ZNKSt13__atomic_baseIiE4loadESt12memory_order(ptr noundef nonnull align 4 dereferenceable(4) %9, i32 noundef 0) #3
  store i32 %10, ptr %6, align 4, !tbaa !3
  %11 = load i32, ptr %5, align 4, !tbaa !3
  %12 = load i32, ptr %6, align 4, !tbaa !3
  %13 = icmp sgt i32 %11, %12
  %14 = zext i1 %13 to i64
  %15 = call i64 @llvm.expect.i64(i64 %14, i64 1)
  %16 = icmp ne i64 %15, 0
  br i1 %16, label %17, label %18

17:                                               ; preds = %2
  store i1 false, ptr %3, align 1
  store i32 1, ptr %7, align 4
  br label %62

18:                                               ; preds = %2
  %19 = load i32, ptr %5, align 4, !tbaa !3
  %20 = call i1 @llvm.is.constant.i32(i32 %19)
  br i1 %20, label %21, label %58

21:                                               ; preds = %18
  %22 = load i32, ptr %5, align 4, !tbaa !3
  %23 = icmp eq i32 %22, 0
  br i1 %23, label %24, label %27

24:                                               ; preds = %21
  %25 = load i32, ptr %6, align 4, !tbaa !3
  %26 = call noundef zeroext i1 @_ZN4absl12lts_2024072212log_internal8VLogSite14SlowIsEnabled0Ei(ptr noundef nonnull align 8 dereferenceable(24) %8, i32 noundef %25)
  store i1 %26, ptr %3, align 1
  store i32 1, ptr %7, align 4
  br label %62

27:                                               ; preds = %21
  %28 = load i32, ptr %5, align 4, !tbaa !3
  %29 = icmp eq i32 %28, 1
  br i1 %29, label %30, label %33

30:                                               ; preds = %27
  %31 = load i32, ptr %6, align 4, !tbaa !3
  %32 = call noundef zeroext i1 @_ZN4absl12lts_2024072212log_internal8VLogSite14SlowIsEnabled1Ei(ptr noundef nonnull align 8 dereferenceable(24) %8, i32 noundef %31)
  store i1 %32, ptr %3, align 1
  store i32 1, ptr %7, align 4
  br label %62

33:                                               ; preds = %27
  %34 = load i32, ptr %5, align 4, !tbaa !3
  %35 = icmp eq i32 %34, 2
  br i1 %35, label %36, label %39

36:                                               ; preds = %33
  %37 = load i32, ptr %6, align 4, !tbaa !3
  %38 = call noundef zeroext i1 @_ZN4absl12lts_2024072212log_internal8VLogSite14SlowIsEnabled2Ei(ptr noundef nonnull align 8 dereferenceable(24) %8, i32 noundef %37)
  store i1 %38, ptr %3, align 1
  store i32 1, ptr %7, align 4
  br label %62

39:                                               ; preds = %33
  %40 = load i32, ptr %5, align 4, !tbaa !3
  %41 = icmp eq i32 %40, 3
  br i1 %41, label %42, label %45

42:                                               ; preds = %39
  %43 = load i32, ptr %6, align 4, !tbaa !3
  %44 = call noundef zeroext i1 @_ZN4absl12lts_2024072212log_internal8VLogSite14SlowIsEnabled3Ei(ptr noundef nonnull align 8 dereferenceable(24) %8, i32 noundef %43)
  store i1 %44, ptr %3, align 1
  store i32 1, ptr %7, align 4
  br label %62

45:                                               ; preds = %39
  %46 = load i32, ptr %5, align 4, !tbaa !3
  %47 = icmp eq i32 %46, 4
  br i1 %47, label %48, label %51

48:                                               ; preds = %45
  %49 = load i32, ptr %6, align 4, !tbaa !3
  %50 = call noundef zeroext i1 @_ZN4absl12lts_2024072212log_internal8VLogSite14SlowIsEnabled4Ei(ptr noundef nonnull align 8 dereferenceable(24) %8, i32 noundef %49)
  store i1 %50, ptr %3, align 1
  store i32 1, ptr %7, align 4
  br label %62

51:                                               ; preds = %45
  %52 = load i32, ptr %5, align 4, !tbaa !3
  %53 = icmp eq i32 %52, 5
  br i1 %53, label %54, label %57

54:                                               ; preds = %51
  %55 = load i32, ptr %6, align 4, !tbaa !3
  %56 = call noundef zeroext i1 @_ZN4absl12lts_2024072212log_internal8VLogSite14SlowIsEnabled5Ei(ptr noundef nonnull align 8 dereferenceable(24) %8, i32 noundef %55)
  store i1 %56, ptr %3, align 1
  store i32 1, ptr %7, align 4
  br label %62

57:                                               ; preds = %51
  br label %58

58:                                               ; preds = %57, %18
  %59 = load i32, ptr %6, align 4, !tbaa !3
  %60 = load i32, ptr %5, align 4, !tbaa !3
  %61 = call noundef zeroext i1 @_ZN4absl12lts_2024072212log_internal8VLogSite13SlowIsEnabledEii(ptr noundef nonnull align 8 dereferenceable(24) %8, i32 noundef %59, i32 noundef %60)
  store i1 %61, ptr %3, align 1
  store i32 1, ptr %7, align 4
  br label %62

62:                                               ; preds = %58, %54, %48, %42, %36, %30, %24, %17
  call void @llvm.lifetime.end.p0(i64 4, ptr %6) #3
  %63 = load i1, ptr %3, align 1
  ret i1 %63
}

; Function Attrs: inlinehint mustprogress nounwind uwtable
define internal noundef ptr @"_ZZL12dump_objectsPKcENK3$_0clEv"(ptr noundef nonnull align 1 dereferenceable(1) %0) #8 align 2 {
  %2 = alloca ptr, align 8
  store ptr %0, ptr %2, align 8, !tbaa !44
  ret ptr @"_ZZZL12dump_objectsPKcENK3$_0clEvE4site"
}

; Function Attrs: mustprogress uwtable
define internal void @_ZL12dump_objectsPKc(ptr noundef %0) #4 personality ptr @__gxx_personality_v0 {
  %2 = alloca ptr, align 8
  %3 = alloca ptr, align 8
  %4 = alloca i32, align 4
  %5 = alloca %class.anon.30, align 1
  %6 = alloca %"class.absl::lts_20240722::log_internal::Voidify", align 1
  %7 = alloca %"class.absl::lts_20240722::log_internal::LogMessage", align 8
  %8 = alloca i1, align 1
  %9 = alloca i1, align 1
  %10 = alloca ptr, align 8
  %11 = alloca i32, align 4
  store ptr %0, ptr %2, align 8, !tbaa !51
  call void @llvm.lifetime.start.p0(i64 8, ptr %3) #3
  %12 = load ptr, ptr getelementptr inbounds nuw (%struct.grpc_iomgr_object, ptr @_ZL13g_root_object, i32 0, i32 1), align 8, !tbaa !12
  store ptr %12, ptr %3, align 8, !tbaa !37
  br label %13

13:                                               ; preds = %44, %1
  %14 = load ptr, ptr %3, align 8, !tbaa !37
  %15 = icmp ne ptr %14, @_ZL13g_root_object
  br i1 %15, label %16, label %58

16:                                               ; preds = %13
  call void @llvm.lifetime.start.p0(i64 4, ptr %4) #3
  store i32 2, ptr %4, align 4, !tbaa !3
  call void @llvm.lifetime.start.p0(i64 1, ptr %5) #3
  %17 = call noundef ptr @"_ZZL12dump_objectsPKcENK3$_0clEv"(ptr noundef nonnull align 1 dereferenceable(1) %5)
  %18 = call noundef zeroext i1 @_ZN4absl12lts_2024072212log_internal8VLogSite9IsEnabledEi(ptr noundef nonnull align 8 dereferenceable(24) %17, i32 noundef 2)
  call void @llvm.lifetime.start.p0(i64 1, ptr %6) #3
  store i1 false, ptr %8, align 1
  store i1 false, ptr %9, align 1
  br i1 %18, label %20, label %19

19:                                               ; preds = %16
  br label %37

20:                                               ; preds = %16
  call void @llvm.lifetime.start.p0(i64 16, ptr %7) #3
  store i1 true, ptr %8, align 1
  call void @_ZN4absl12lts_2024072212log_internal10LogMessageC1EPKciNS2_7InfoTagE(ptr noundef nonnull align 8 dereferenceable(16) %7, ptr noundef @.str.1, i32 noundef 84) #23
  store i1 true, ptr %9, align 1
  %21 = call noundef nonnull align 8 dereferenceable(16) ptr @_ZN4absl12lts_2024072212log_internal10LogMessage14InternalStreamEv(ptr noundef nonnull align 8 dereferenceable(16) %7)
  %22 = invoke noundef nonnull align 8 dereferenceable(16) ptr @_ZN4absl12lts_2024072212log_internal10LogMessage13WithVerbosityEi(ptr noundef nonnull align 8 dereferenceable(16) %21, i32 noundef 2)
          to label %23 unwind label %48

23:                                               ; preds = %20
  %24 = invoke noundef nonnull align 8 dereferenceable(16) ptr @_ZN4absl12lts_2024072212log_internal10LogMessagelsIPKcTnNSt9enable_ifIXntsr4absl16HasAbslStringifyIT_EE5valueEiE4typeELi0EEERS2_RKS7_(ptr noundef nonnull align 8 dereferenceable(16) %22, ptr noundef nonnull align 8 dereferenceable(8) %2)
          to label %25 unwind label %48

25:                                               ; preds = %23
  %26 = invoke noundef nonnull align 8 dereferenceable(16) ptr @_ZN4absl12lts_2024072212log_internal10LogMessagelsILi10EEERS2_RAT__Kc(ptr noundef nonnull align 8 dereferenceable(16) %24, ptr noundef nonnull align 1 dereferenceable(10) @.str.8)
          to label %27 unwind label %48

27:                                               ; preds = %25
  %28 = load ptr, ptr %3, align 8, !tbaa !37
  %29 = getelementptr inbounds nuw %struct.grpc_iomgr_object, ptr %28, i32 0, i32 0
  %30 = invoke noundef nonnull align 8 dereferenceable(16) ptr @_ZN4absl12lts_2024072212log_internal10LogMessagelsIPcTnNSt9enable_ifIXntsr4absl16HasAbslStringifyIT_EE5valueEiE4typeELi0EEERS2_RKS6_(ptr noundef nonnull align 8 dereferenceable(16) %26, ptr noundef nonnull align 8 dereferenceable(8) %29)
          to label %31 unwind label %48

31:                                               ; preds = %27
  %32 = invoke noundef nonnull align 8 dereferenceable(16) ptr @_ZN4absl12lts_2024072212log_internal10LogMessagelsILi2EEERS2_RAT__Kc(ptr noundef nonnull align 8 dereferenceable(16) %30, ptr noundef nonnull align 1 dereferenceable(2) @.str.9)
          to label %33 unwind label %48

33:                                               ; preds = %31
  %34 = invoke noundef nonnull align 8 dereferenceable(16) ptr @_ZN4absl12lts_2024072212log_internal10LogMessagelsIP17grpc_iomgr_objectTnNSt9enable_ifIXntsr4absl16HasAbslStringifyIT_EE5valueEiE4typeELi0EEERS2_RKS7_(ptr noundef nonnull align 8 dereferenceable(16) %32, ptr noundef nonnull align 8 dereferenceable(8) %3)
          to label %35 unwind label %48

35:                                               ; preds = %33
  invoke void @_ZNKO4absl12lts_2024072212log_internal7VoidifyaaINS1_10LogMessageEEEvRKT_(ptr noundef nonnull align 1 dereferenceable(1) %6, ptr noundef nonnull align 8 dereferenceable(16) %34)
          to label %36 unwind label %48

36:                                               ; preds = %35
  br label %37

37:                                               ; preds = %36, %19
  %38 = load i1, ptr %9, align 1
  br i1 %38, label %39, label %40

39:                                               ; preds = %37
  call void @_ZN4absl12lts_2024072212log_internal10LogMessageD1Ev(ptr noundef nonnull align 8 dereferenceable(16) %7) #24
  br label %40

40:                                               ; preds = %39, %37
  %41 = load i1, ptr %8, align 1
  br i1 %41, label %42, label %43

42:                                               ; preds = %40
  call void @llvm.lifetime.end.p0(i64 16, ptr %7) #3
  br label %43

43:                                               ; preds = %42, %40
  call void @llvm.lifetime.end.p0(i64 1, ptr %6) #3
  call void @llvm.lifetime.end.p0(i64 1, ptr %5) #3
  call void @llvm.lifetime.end.p0(i64 4, ptr %4) #3
  br label %44

44:                                               ; preds = %43
  %45 = load ptr, ptr %3, align 8, !tbaa !37
  %46 = getelementptr inbounds nuw %struct.grpc_iomgr_object, ptr %45, i32 0, i32 1
  %47 = load ptr, ptr %46, align 8, !tbaa !12
  store ptr %47, ptr %3, align 8, !tbaa !37
  br label %13, !llvm.loop !52

48:                                               ; preds = %35, %33, %31, %27, %25, %23, %20
  %49 = landingpad { ptr, i32 }
          cleanup
  %50 = extractvalue { ptr, i32 } %49, 0
  store ptr %50, ptr %10, align 8
  %51 = extractvalue { ptr, i32 } %49, 1
  store i32 %51, ptr %11, align 4
  %52 = load i1, ptr %9, align 1
  br i1 %52, label %53, label %54

53:                                               ; preds = %48
  call void @_ZN4absl12lts_2024072212log_internal10LogMessageD1Ev(ptr noundef nonnull align 8 dereferenceable(16) %7) #24
  br label %54

54:                                               ; preds = %53, %48
  %55 = load i1, ptr %8, align 1
  br i1 %55, label %56, label %57

56:                                               ; preds = %54
  call void @llvm.lifetime.end.p0(i64 16, ptr %7) #3
  br label %57

57:                                               ; preds = %56, %54
  call void @llvm.lifetime.end.p0(i64 1, ptr %6) #3
  call void @llvm.lifetime.end.p0(i64 1, ptr %5) #3
  call void @llvm.lifetime.end.p0(i64 4, ptr %4) #3
  call void @llvm.lifetime.end.p0(i64 8, ptr %3) #3
  br label %59

58:                                               ; preds = %13
  call void @llvm.lifetime.end.p0(i64 8, ptr %3) #3
  ret void

59:                                               ; preds = %57
  %60 = load ptr, ptr %10, align 8
  %61 = load i32, ptr %11, align 4
  %62 = insertvalue { ptr, i32 } poison, ptr %60, 0
  %63 = insertvalue { ptr, i32 } %62, i32 %61, 1
  resume { ptr, i32 } %63
}