; Function Attrs: mustprogress uwtable
define internal fastcc void @_ZL12dump_objectsPKc() unnamed_addr #6 personality ptr @__gxx_personality_v0 {
  %1 = alloca ptr, align 8
  %2 = alloca ptr, align 8
  %3 = alloca %"class.absl::lts_20240722::log_internal::LogMessage", align 8
  store ptr @.str.7, ptr %1, align 8, !tbaa !56
  call void @llvm.lifetime.start.p0(i64 8, ptr nonnull %2) #19
  %storemerge3 = load ptr, ptr getelementptr inbounds nuw (i8, ptr @_ZL13g_root_object, i64 8), align 8, !tbaa !30
  store ptr %storemerge3, ptr %2, align 8, !tbaa !57
  %.not4 = icmp eq ptr %storemerge3, @_ZL13g_root_object
  br i1 %.not4, label %._crit_edge, label %.lr.ph

.lr.ph:                                           ; preds = %0, %.critedge6
  %4 = load atomic i32, ptr getelementptr inbounds nuw (i8, ptr @"_ZZZL12dump_objectsPKcENK3$_0clEvE4site", i64 8) monotonic, align 8
  %5 = icmp slt i32 %4, 2
  br i1 %5, label %.critedge6, label %_ZN4absl12lts_2024072212log_internal8VLogSite9IsEnabledEi.exit, !prof !41

_ZN4absl12lts_2024072212log_internal8VLogSite9IsEnabledEi.exit: ; preds = %.lr.ph
  %6 = call noundef zeroext i1 @_ZN4absl12lts_2024072212log_internal8VLogSite14SlowIsEnabled2Ei(ptr noundef nonnull align 8 dereferenceable(24) @"_ZZZL12dump_objectsPKcENK3$_0clEvE4site", i32 noundef %4)
  br i1 %6, label %7, label %.critedge6

7:                                                ; preds = %_ZN4absl12lts_2024072212log_internal8VLogSite9IsEnabledEi.exit
  call void @llvm.lifetime.start.p0(i64 16, ptr nonnull %3) #19
  call void @_ZN4absl12lts_2024072212log_internal10LogMessageC1EPKciNS2_7InfoTagE(ptr noundef nonnull align 8 dereferenceable(16) %3, ptr noundef nonnull @.str.1, i32 noundef 84) #21
  %8 = invoke noundef nonnull align 8 dereferenceable(16) ptr @_ZN4absl12lts_2024072212log_internal10LogMessage13WithVerbosityEi(ptr noundef nonnull align 8 dereferenceable(16) %3, i32 noundef 2)
          to label %9 unwind label %18

9:                                                ; preds = %7
  %10 = invoke noundef nonnull align 8 dereferenceable(16) ptr @_ZN4absl12lts_2024072212log_internal10LogMessagelsIPKcTnNSt9enable_ifIXntsr4absl16HasAbslStringifyIT_EE5valueEiE4typeELi0EEERS2_RKS7_(ptr noundef nonnull align 8 dereferenceable(16) %8, ptr noundef nonnull align 8 dereferenceable(8) %1)
          to label %11 unwind label %18

11:                                               ; preds = %9
  invoke void @_ZN4absl12lts_2024072212log_internal10LogMessage19CopyToEncodedBufferILNS2_10StringTypeE0EEEvSt17basic_string_viewIcSt11char_traitsIcEE(ptr noundef nonnull align 8 dereferenceable(16) %10, i64 9, ptr nonnull @.str.8)
          to label %_ZN4absl12lts_2024072212log_internal10LogMessagelsILi10EEERS2_RAT__Kc.exit unwind label %18

_ZN4absl12lts_2024072212log_internal10LogMessagelsILi10EEERS2_RAT__Kc.exit: ; preds = %11
  %12 = load ptr, ptr %2, align 8, !tbaa !57
  %13 = invoke noundef nonnull align 8 dereferenceable(16) ptr @_ZN4absl12lts_2024072212log_internal10LogMessagelsIPcTnNSt9enable_ifIXntsr4absl16HasAbslStringifyIT_EE5valueEiE4typeELi0EEERS2_RKS6_(ptr noundef nonnull align 8 dereferenceable(16) %10, ptr noundef nonnull align 8 dereferenceable(8) %12)
          to label %14 unwind label %18

14:                                               ; preds = %_ZN4absl12lts_2024072212log_internal10LogMessagelsILi10EEERS2_RAT__Kc.exit
  invoke void @_ZN4absl12lts_2024072212log_internal10LogMessage19CopyToEncodedBufferILNS2_10StringTypeE0EEEvSt17basic_string_viewIcSt11char_traitsIcEE(ptr noundef nonnull align 8 dereferenceable(16) %13, i64 1, ptr nonnull @.str.9)
          to label %_ZN4absl12lts_2024072212log_internal10LogMessagelsILi2EEERS2_RAT__Kc.exit unwind label %18

_ZN4absl12lts_2024072212log_internal10LogMessagelsILi2EEERS2_RAT__Kc.exit: ; preds = %14
  %15 = invoke noundef nonnull align 8 dereferenceable(16) ptr @_ZN4absl12lts_2024072212log_internal10LogMessagelsIP17grpc_iomgr_objectTnNSt9enable_ifIXntsr4absl16HasAbslStringifyIT_EE5valueEiE4typeELi0EEERS2_RKS7_(ptr noundef nonnull align 8 dereferenceable(16) %13, ptr noundef nonnull align 8 dereferenceable(8) %2)
          to label %.critedge unwind label %18

.critedge:                                        ; preds = %_ZN4absl12lts_2024072212log_internal10LogMessagelsILi2EEERS2_RAT__Kc.exit
  call void @_ZN4absl12lts_2024072212log_internal10LogMessageD1Ev(ptr noundef nonnull align 8 dereferenceable(16) %3) #22
  call void @llvm.lifetime.end.p0(i64 16, ptr nonnull %3) #19
  br label %.critedge6

.critedge6:                                       ; preds = %.lr.ph, %_ZN4absl12lts_2024072212log_internal8VLogSite9IsEnabledEi.exit, %.critedge
  %16 = load ptr, ptr %2, align 8, !tbaa !57
  %17 = getelementptr inbounds nuw i8, ptr %16, i64 8
  %storemerge = load ptr, ptr %17, align 8, !tbaa !30
  store ptr %storemerge, ptr %2, align 8, !tbaa !57
  %.not = icmp eq ptr %storemerge, @_ZL13g_root_object
  br i1 %.not, label %._crit_edge, label %.lr.ph, !llvm.loop !58

18:                                               ; preds = %14, %11, %_ZN4absl12lts_2024072212log_internal10LogMessagelsILi2EEERS2_RAT__Kc.exit, %_ZN4absl12lts_2024072212log_internal10LogMessagelsILi10EEERS2_RAT__Kc.exit, %9, %7
  %19 = landingpad { ptr, i32 }
          cleanup
  call void @_ZN4absl12lts_2024072212log_internal10LogMessageD1Ev(ptr noundef nonnull align 8 dereferenceable(16) %3) #22
  call void @llvm.lifetime.end.p0(i64 16, ptr nonnull %3) #19
  call void @llvm.lifetime.end.p0(i64 8, ptr nonnull %2) #19
  resume { ptr, i32 } %19

._crit_edge:                                      ; preds = %.critedge6, %0
  call void @llvm.lifetime.end.p0(i64 8, ptr nonnull %2) #19
  ret void
}